; Function Attrs: nounwind uwtable
define hidden signext range(i8 0, 2) i8 @nfaExecMcSheng8_testEOD(ptr noundef readonly captures(none) %0, ptr noundef readonly captures(none) %1, ptr noundef readnone captures(none) %2, i64 noundef %3, ptr noundef readonly captures(none) %4, ptr noundef %5) local_unnamed_addr #0 {
  %7 = load i8, ptr %1, align 1
  %8 = getelementptr inbounds nuw i8, ptr %0, i64 76
  %9 = load i32, ptr %8, align 4
  %10 = zext i32 %9 to i64
  %11 = getelementptr inbounds nuw i8, ptr %0, i64 %10
  %12 = zext i8 %7 to i64
  %13 = getelementptr inbounds nuw %struct.mstate_aux, ptr %11, i64 %12, i32 1
  %14 = load i32, ptr %13, align 4
  %.not.i = icmp eq i32 %14, 0
  br i1 %.not.i, label %mcshengCheckEOD.exit, label %15

15:                                               ; preds = %6
  %16 = getelementptr inbounds nuw i8, ptr %0, i64 64
  %17 = zext i32 %14 to i64
  %18 = getelementptr inbounds nuw i8, ptr %16, i64 %17
  %19 = getelementptr inbounds i8, ptr %18, i64 -64
  %20 = load i32, ptr %19, align 4
  %21 = getelementptr inbounds i8, ptr %18, i64 -60
  %.not38.i.i4 = icmp eq i32 %20, 0
  br i1 %.not38.i.i4, label %mcshengCheckEOD.exit, label %.lr.ph.preheader

.lr.ph.preheader:                                 ; preds = %15
  %wide.trip.count = zext i32 %20 to i64
  br label %.lr.ph

22:                                               ; preds = %.lr.ph
  %indvars.iv.next = add nuw nsw i64 %indvars.iv, 1
  %exitcond.not = icmp eq i64 %indvars.iv.next, %wide.trip.count
  br i1 %exitcond.not, label %mcshengCheckEOD.exit, label %.lr.ph

.lr.ph:                                           ; preds = %.lr.ph.preheader, %22
  %indvars.iv = phi i64 [ 0, %.lr.ph.preheader ], [ %indvars.iv.next, %22 ]
  %23 = getelementptr inbounds nuw [0 x i32], ptr %21, i64 0, i64 %indvars.iv
  %24 = load i32, ptr %23, align 4
  %25 = tail call i32 %4(i64 noundef 0, i64 noundef %3, i32 noundef %24, ptr noundef %5) #13
  %26 = icmp eq i32 %25, 0
  br i1 %26, label %mcshengCheckEOD.exit, label %22

mcshengCheckEOD.exit:                             ; preds = %.lr.ph, %22, %15, %6
  %.0.i = phi i8 [ 1, %6 ], [ 1, %15 ], [ 0, %.lr.ph ], [ 1, %22 ]
  ret i8 %.0.i
}